target datalayout = "e-m:e-p270:32:32-p271:32:32-p272:64:64-i64:64-i128:128-f80:128-n8:16:32:64-S128"
target triple = "x86_64-pc-linux-gnu"

; Function Attrs: inlinehint nounwind uwtable
define internal i32 @__bswap_32(i32 noundef %0) #2 {
  %2 = alloca i32, align 4
  store i32 %0, ptr %2, align 4, !tbaa !8
  %3 = load i32, ptr %2, align 4, !tbaa !8
  %4 = and i32 %3, -16777216
  %5 = lshr i32 %4, 24
  %6 = load i32, ptr %2, align 4, !tbaa !8
  %7 = and i32 %6, 16711680
  %8 = lshr i32 %7, 8
  %9 = or i32 %5, %8
  %10 = load i32, ptr %2, align 4, !tbaa !8
  %11 = and i32 %10, 65280
  %12 = shl i32 %11, 8
  %13 = or i32 %9, %12
  %14 = load i32, ptr %2, align 4, !tbaa !8
  %15 = and i32 %14, 255
  %16 = shl i32 %15, 24
  %17 = or i32 %13, %16
  ret i32 %17
}

; Function Attrs: inlinehint nounwind uwtable
define internal i32 @load32(ptr noundef %0) #2 {
  %2 = alloca ptr, align 8
  %3 = alloca i32, align 4
  store ptr %0, ptr %2, align 8, !tbaa !10
  call void @llvm.lifetime.start.p0(i64 4, ptr %3) #8
  %4 = load ptr, ptr %2, align 8, !tbaa !10
  call void @llvm.memcpy.p0.p0.i64(ptr align 4 %3, ptr align 1 %4, i64 4, i1 false)
  %5 = load i32, ptr %3, align 4, !tbaa !8
  call void @llvm.lifetime.end.p0(i64 4, ptr %3) #8
  ret i32 %5
}

; Function Attrs: nounwind uwtable
define internal void @update(ptr noundef %0, ptr noundef %1) #0 {
  %3 = alloca ptr, align 8
  %4 = alloca ptr, align 8
  %5 = alloca i32, align 4
  %6 = alloca i32, align 4
  %7 = alloca i32, align 4
  %8 = alloca i32, align 4
  %9 = alloca i32, align 4
  %10 = alloca [80 x i32], align 16
  %11 = alloca i32, align 4
  %12 = alloca i32, align 4
  %13 = alloca ptr, align 8
  %14 = alloca i32, align 4
  %15 = alloca i32, align 4
  %16 = alloca i32, align 4
  %17 = alloca i32, align 4
  %18 = alloca i32, align 4
  %19 = alloca i32, align 4
  %20 = alloca i32, align 4
  %21 = alloca i32, align 4
  %22 = alloca i32, align 4
  %23 = alloca i32, align 4
  %24 = alloca i32, align 4
  %25 = alloca i32, align 4
  %26 = alloca i32, align 4
  %27 = alloca i32, align 4
  %28 = alloca i32, align 4
  %29 = alloca i32, align 4
  %30 = alloca i32, align 4
  %31 = alloca i32, align 4
  %32 = alloca i32, align 4
  %33 = alloca i32, align 4
  %34 = alloca i32, align 4
  store ptr %0, ptr %3, align 8, !tbaa !3
  store ptr %1, ptr %4, align 8, !tbaa !10
  call void @llvm.lifetime.start.p0(i64 4, ptr %5) #8
  %35 = load ptr, ptr %3, align 8, !tbaa !3
  %36 = getelementptr i32, ptr %35, i64 0
  %37 = load i32, ptr %36, align 4, !tbaa !8
  store i32 %37, ptr %5, align 4, !tbaa !8
  call void @llvm.lifetime.start.p0(i64 4, ptr %6) #8
  %38 = load ptr, ptr %3, align 8, !tbaa !3
  %39 = getelementptr i32, ptr %38, i64 1
  %40 = load i32, ptr %39, align 4, !tbaa !8
  store i32 %40, ptr %6, align 4, !tbaa !8
  call void @llvm.lifetime.start.p0(i64 4, ptr %7) #8
  %41 = load ptr, ptr %3, align 8, !tbaa !3
  %42 = getelementptr i32, ptr %41, i64 2
  %43 = load i32, ptr %42, align 4, !tbaa !8
  store i32 %43, ptr %7, align 4, !tbaa !8
  call void @llvm.lifetime.start.p0(i64 4, ptr %8) #8
  %44 = load ptr, ptr %3, align 8, !tbaa !3
  %45 = getelementptr i32, ptr %44, i64 3
  %46 = load i32, ptr %45, align 4, !tbaa !8
  store i32 %46, ptr %8, align 4, !tbaa !8
  call void @llvm.lifetime.start.p0(i64 4, ptr %9) #8
  %47 = load ptr, ptr %3, align 8, !tbaa !3
  %48 = getelementptr i32, ptr %47, i64 4
  %49 = load i32, ptr %48, align 4, !tbaa !8
  store i32 %49, ptr %9, align 4, !tbaa !8
  call void @llvm.lifetime.start.p0(i64 320, ptr %10) #8
  call void @llvm.memset.p0.i64(ptr align 16 %10, i8 0, i64 320, i1 false)
  call void @llvm.lifetime.start.p0(i64 4, ptr %11) #8
  store i32 0, ptr %11, align 4, !tbaa !8
  br label %50

50:                                               ; preds = %110, %2
  %51 = load i32, ptr %11, align 4, !tbaa !8
  %52 = icmp ult i32 %51, 80
  br i1 %52, label %54, label %53

53:                                               ; preds = %50
  call void @llvm.lifetime.end.p0(i64 4, ptr %11) #8
  br label %113

54:                                               ; preds = %50
  call void @llvm.lifetime.start.p0(i64 4, ptr %12) #8
  %55 = load i32, ptr %11, align 4, !tbaa !8
  %56 = icmp ult i32 %55, 16
  br i1 %56, label %57, label %67

57:                                               ; preds = %54
  call void @llvm.lifetime.start.p0(i64 8, ptr %13) #8
  %58 = load ptr, ptr %4, align 8, !tbaa !10
  %59 = load i32, ptr %11, align 4, !tbaa !8
  %60 = mul i32 %59, 4
  %61 = zext i32 %60 to i64
  %62 = getelementptr i8, ptr %58, i64 %61
  store ptr %62, ptr %13, align 8, !tbaa !10
  call void @llvm.lifetime.start.p0(i64 4, ptr %14) #8
  %63 = load ptr, ptr %13, align 8, !tbaa !10
  %64 = call i32 @load32(ptr noundef %63)
  %65 = call i32 @__bswap_32(i32 noundef %64)
  store i32 %65, ptr %14, align 4, !tbaa !8
  %66 = load i32, ptr %14, align 4, !tbaa !8
  store i32 %66, ptr %12, align 4, !tbaa !8
  call void @llvm.lifetime.end.p0(i64 4, ptr %14) #8
  call void @llvm.lifetime.end.p0(i64 8, ptr %13) #8
  br label %105

67:                                               ; preds = %54
  call void @llvm.lifetime.start.p0(i64 4, ptr %15) #8
  %68 = load i32, ptr %11, align 4, !tbaa !8
  %69 = sub i32 %68, 3
  %70 = zext i32 %69 to i64
  %71 = getelementptr [80 x i32], ptr %10, i64 0, i64 %70
  %72 = load i32, ptr %71, align 4, !tbaa !8
  store i32 %72, ptr %15, align 4, !tbaa !8
  call void @llvm.lifetime.start.p0(i64 4, ptr %16) #8
  %73 = load i32, ptr %11, align 4, !tbaa !8
  %74 = sub i32 %73, 8
  %75 = zext i32 %74 to i64
  %76 = getelementptr [80 x i32], ptr %10, i64 0, i64 %75
  %77 = load i32, ptr %76, align 4, !tbaa !8
  store i32 %77, ptr %16, align 4, !tbaa !8
  call void @llvm.lifetime.start.p0(i64 4, ptr %17) #8
  %78 = load i32, ptr %11, align 4, !tbaa !8
  %79 = sub i32 %78, 14
  %80 = zext i32 %79 to i64
  %81 = getelementptr [80 x i32], ptr %10, i64 0, i64 %80
  %82 = load i32, ptr %81, align 4, !tbaa !8
  store i32 %82, ptr %17, align 4, !tbaa !8
  call void @llvm.lifetime.start.p0(i64 4, ptr %18) #8
  %83 = load i32, ptr %11, align 4, !tbaa !8
  %84 = sub i32 %83, 16
  %85 = zext i32 %84 to i64
  %86 = getelementptr [80 x i32], ptr %10, i64 0, i64 %85
  %87 = load i32, ptr %86, align 4, !tbaa !8
  store i32 %87, ptr %18, align 4, !tbaa !8
  %88 = load i32, ptr %15, align 4, !tbaa !8
  %89 = load i32, ptr %16, align 4, !tbaa !8
  %90 = load i32, ptr %17, align 4, !tbaa !8
  %91 = load i32, ptr %18, align 4, !tbaa !8
  %92 = xor i32 %90, %91
  %93 = xor i32 %89, %92
  %94 = xor i32 %88, %93
  %95 = shl i32 %94, 1
  %96 = load i32, ptr %15, align 4, !tbaa !8
  %97 = load i32, ptr %16, align 4, !tbaa !8
  %98 = load i32, ptr %17, align 4, !tbaa !8
  %99 = load i32, ptr %18, align 4, !tbaa !8
  %100 = xor i32 %98, %99
  %101 = xor i32 %97, %100
  %102 = xor i32 %96, %101
  %103 = lshr i32 %102, 31
  %104 = or i32 %95, %103
  store i32 %104, ptr %12, align 4, !tbaa !8
  call void @llvm.lifetime.end.p0(i64 4, ptr %18) #8
  call void @llvm.lifetime.end.p0(i64 4, ptr %17) #8
  call void @llvm.lifetime.end.p0(i64 4, ptr %16) #8
  call void @llvm.lifetime.end.p0(i64 4, ptr %15) #8
  br label %105

105:                                              ; preds = %67, %57
  %106 = load i32, ptr %12, align 4, !tbaa !8
  %107 = load i32, ptr %11, align 4, !tbaa !8
  %108 = zext i32 %107 to i64
  %109 = getelementptr [80 x i32], ptr %10, i64 0, i64 %108
  store i32 %106, ptr %109, align 4, !tbaa !8
  call void @llvm.lifetime.end.p0(i64 4, ptr %12) #8
  br label %110

110:                                              ; preds = %105
  %111 = load i32, ptr %11, align 4, !tbaa !8
  %112 = add i32 %111, 1
  store i32 %112, ptr %11, align 4, !tbaa !8
  br label %50, !llvm.loop !14

113:                                              ; preds = %53
  call void @llvm.lifetime.start.p0(i64 4, ptr %19) #8
  store i32 0, ptr %19, align 4, !tbaa !8
  br label %114

114:                                              ; preds = %222, %113
  %115 = load i32, ptr %19, align 4, !tbaa !8
  %116 = icmp ult i32 %115, 80
  br i1 %116, label %118, label %117

117:                                              ; preds = %114
  call void @llvm.lifetime.end.p0(i64 4, ptr %19) #8
  br label %225

118:                                              ; preds = %114
  call void @llvm.lifetime.start.p0(i64 4, ptr %20) #8
  %119 = load ptr, ptr %3, align 8, !tbaa !3
  %120 = getelementptr i32, ptr %119, i64 0
  %121 = load i32, ptr %120, align 4, !tbaa !8
  store i32 %121, ptr %20, align 4, !tbaa !8
  call void @llvm.lifetime.start.p0(i64 4, ptr %21) #8
  %122 = load ptr, ptr %3, align 8, !tbaa !3
  %123 = getelementptr i32, ptr %122, i64 1
  %124 = load i32, ptr %123, align 4, !tbaa !8
  store i32 %124, ptr %21, align 4, !tbaa !8
  call void @llvm.lifetime.start.p0(i64 4, ptr %22) #8
  %125 = load ptr, ptr %3, align 8, !tbaa !3
  %126 = getelementptr i32, ptr %125, i64 2
  %127 = load i32, ptr %126, align 4, !tbaa !8
  store i32 %127, ptr %22, align 4, !tbaa !8
  call void @llvm.lifetime.start.p0(i64 4, ptr %23) #8
  %128 = load ptr, ptr %3, align 8, !tbaa !3
  %129 = getelementptr i32, ptr %128, i64 3
  %130 = load i32, ptr %129, align 4, !tbaa !8
  store i32 %130, ptr %23, align 4, !tbaa !8
  call void @llvm.lifetime.start.p0(i64 4, ptr %24) #8
  %131 = load ptr, ptr %3, align 8, !tbaa !3
  %132 = getelementptr i32, ptr %131, i64 4
  %133 = load i32, ptr %132, align 4, !tbaa !8
  store i32 %133, ptr %24, align 4, !tbaa !8
  call void @llvm.lifetime.start.p0(i64 4, ptr %25) #8
  %134 = load i32, ptr %19, align 4, !tbaa !8
  %135 = zext i32 %134 to i64
  %136 = getelementptr [80 x i32], ptr %10, i64 0, i64 %135
  %137 = load i32, ptr %136, align 4, !tbaa !8
  store i32 %137, ptr %25, align 4, !tbaa !8
  call void @llvm.lifetime.start.p0(i64 4, ptr %26) #8
  %138 = load i32, ptr %19, align 4, !tbaa !8
  %139 = icmp ult i32 %138, 20
  br i1 %139, label %140, label %149

140:                                              ; preds = %118
  %141 = load i32, ptr %21, align 4, !tbaa !8
  %142 = load i32, ptr %22, align 4, !tbaa !8
  %143 = and i32 %141, %142
  %144 = load i32, ptr %21, align 4, !tbaa !8
  %145 = xor i32 %144, -1
  %146 = load i32, ptr %23, align 4, !tbaa !8
  %147 = and i32 %145, %146
  %148 = xor i32 %143, %147
  store i32 %148, ptr %26, align 4, !tbaa !8
  br label %174

149:                                              ; preds = %118
  %150 = load i32, ptr %19, align 4, !tbaa !8
  %151 = icmp ult i32 39, %150
  br i1 %151, label %152, label %167

152:                                              ; preds = %149
  %153 = load i32, ptr %19, align 4, !tbaa !8
  %154 = icmp ult i32 %153, 60
  br i1 %154, label %155, label %167

155:                                              ; preds = %152
  %156 = load i32, ptr %21, align 4, !tbaa !8
  %157 = load i32, ptr %22, align 4, !tbaa !8
  %158 = and i32 %156, %157
  %159 = load i32, ptr %21, align 4, !tbaa !8
  %160 = load i32, ptr %23, align 4, !tbaa !8
  %161 = and i32 %159, %160
  %162 = load i32, ptr %22, align 4, !tbaa !8
  %163 = load i32, ptr %23, align 4, !tbaa !8
  %164 = and i32 %162, %163
  %165 = xor i32 %161, %164
  %166 = xor i32 %158, %165
  store i32 %166, ptr %26, align 4, !tbaa !8
  br label %173

167:                                              ; preds = %152, %149
  %168 = load i32, ptr %21, align 4, !tbaa !8
  %169 = load i32, ptr %22, align 4, !tbaa !8
  %170 = load i32, ptr %23, align 4, !tbaa !8
  %171 = xor i32 %169, %170
  %172 = xor i32 %168, %171
  store i32 %172, ptr %26, align 4, !tbaa !8
  br label %173

173:                                              ; preds = %167, %155
  br label %174

174:                                              ; preds = %173, %140
  call void @llvm.lifetime.start.p0(i64 4, ptr %27) #8
  %175 = load i32, ptr %19, align 4, !tbaa !8
  %176 = icmp ult i32 %175, 20
  br i1 %176, label %177, label %178

177:                                              ; preds = %174
  store i32 1518500249, ptr %27, align 4, !tbaa !8
  br label %189

178:                                              ; preds = %174
  %179 = load i32, ptr %19, align 4, !tbaa !8
  %180 = icmp ult i32 %179, 40
  br i1 %180, label %181, label %182

181:                                              ; preds = %178
  store i32 1859775393, ptr %27, align 4, !tbaa !8
  br label %188

182:                                              ; preds = %178
  %183 = load i32, ptr %19, align 4, !tbaa !8
  %184 = icmp ult i32 %183, 60
  br i1 %184, label %185, label %186

185:                                              ; preds = %182
  store i32 -1894007588, ptr %27, align 4, !tbaa !8
  br label %187

186:                                              ; preds = %182
  store i32 -899497514, ptr %27, align 4, !tbaa !8
  br label %187

187:                                              ; preds = %186, %185
  br label %188

188:                                              ; preds = %187, %181
  br label %189

189:                                              ; preds = %188, %177
  call void @llvm.lifetime.start.p0(i64 4, ptr %28) #8
  %190 = load i32, ptr %20, align 4, !tbaa !8
  %191 = shl i32 %190, 5
  %192 = load i32, ptr %20, align 4, !tbaa !8
  %193 = lshr i32 %192, 27
  %194 = or i32 %191, %193
  %195 = load i32, ptr %26, align 4, !tbaa !8
  %196 = add i32 %194, %195
  %197 = load i32, ptr %24, align 4, !tbaa !8
  %198 = add i32 %196, %197
  %199 = load i32, ptr %27, align 4, !tbaa !8
  %200 = add i32 %198, %199
  %201 = load i32, ptr %25, align 4, !tbaa !8
  %202 = add i32 %200, %201
  store i32 %202, ptr %28, align 4, !tbaa !8
  %203 = load i32, ptr %28, align 4, !tbaa !8
  %204 = load ptr, ptr %3, align 8, !tbaa !3
  %205 = getelementptr i32, ptr %204, i64 0
  store i32 %203, ptr %205, align 4, !tbaa !8
  %206 = load i32, ptr %20, align 4, !tbaa !8
  %207 = load ptr, ptr %3, align 8, !tbaa !3
  %208 = getelementptr i32, ptr %207, i64 1
  store i32 %206, ptr %208, align 4, !tbaa !8
  %209 = load i32, ptr %21, align 4, !tbaa !8
  %210 = shl i32 %209, 30
  %211 = load i32, ptr %21, align 4, !tbaa !8
  %212 = lshr i32 %211, 2
  %213 = or i32 %210, %212
  %214 = load ptr, ptr %3, align 8, !tbaa !3
  %215 = getelementptr i32, ptr %214, i64 2
  store i32 %213, ptr %215, align 4, !tbaa !8
  %216 = load i32, ptr %22, align 4, !tbaa !8
  %217 = load ptr, ptr %3, align 8, !tbaa !3
  %218 = getelementptr i32, ptr %217, i64 3
  store i32 %216, ptr %218, align 4, !tbaa !8
  %219 = load i32, ptr %23, align 4, !tbaa !8
  %220 = load ptr, ptr %3, align 8, !tbaa !3
  %221 = getelementptr i32, ptr %220, i64 4
  store i32 %219, ptr %221, align 4, !tbaa !8
  call void @llvm.lifetime.end.p0(i64 4, ptr %28) #8
  call void @llvm.lifetime.end.p0(i64 4, ptr %27) #8
  call void @llvm.lifetime.end.p0(i64 4, ptr %26) #8
  call void @llvm.lifetime.end.p0(i64 4, ptr %25) #8
  call void @llvm.lifetime.end.p0(i64 4, ptr %24) #8
  call void @llvm.lifetime.end.p0(i64 4, ptr %23) #8
  call void @llvm.lifetime.end.p0(i64 4, ptr %22) #8
  call void @llvm.lifetime.end.p0(i64 4, ptr %21) #8
  call void @llvm.lifetime.end.p0(i64 4, ptr %20) #8
  br label %222

222:                                              ; preds = %189
  %223 = load i32, ptr %19, align 4, !tbaa !8
  %224 = add i32 %223, 1
  store i32 %224, ptr %19, align 4, !tbaa !8
  br label %114, !llvm.loop !15

225:                                              ; preds = %117
  call void @llvm.lifetime.start.p0(i64 4, ptr %29) #8
  store i32 0, ptr %29, align 4, !tbaa !8
  br label %226

226:                                              ; preds = %234, %225
  %227 = load i32, ptr %29, align 4, !tbaa !8
  %228 = icmp ult i32 %227, 80
  br i1 %228, label %230, label %229

229:                                              ; preds = %226
  call void @llvm.lifetime.end.p0(i64 4, ptr %29) #8
  br label %237

230:                                              ; preds = %226
  %231 = load i32, ptr %29, align 4, !tbaa !8
  %232 = zext i32 %231 to i64
  %233 = getelementptr [80 x i32], ptr %10, i64 0, i64 %232
  store i32 0, ptr %233, align 4, !tbaa !8
  br label %234

234:                                              ; preds = %230
  %235 = load i32, ptr %29, align 4, !tbaa !8
  %236 = add i32 %235, 1
  store i32 %236, ptr %29, align 4, !tbaa !8
  br label %226, !llvm.loop !16

237:                                              ; preds = %229
  call void @llvm.lifetime.start.p0(i64 4, ptr %30) #8
  %238 = load ptr, ptr %3, align 8, !tbaa !3
  %239 = getelementptr i32, ptr %238, i64 0
  %240 = load i32, ptr %239, align 4, !tbaa !8
  store i32 %240, ptr %30, align 4, !tbaa !8
  call void @llvm.lifetime.start.p0(i64 4, ptr %31) #8
  %241 = load ptr, ptr %3, align 8, !tbaa !3
  %242 = getelementptr i32, ptr %241, i64 1
  %243 = load i32, ptr %242, align 4, !tbaa !8
  store i32 %243, ptr %31, align 4, !tbaa !8
  call void @llvm.lifetime.start.p0(i64 4, ptr %32) #8
  %244 = load ptr, ptr %3, align 8, !tbaa !3
  %245 = getelementptr i32, ptr %244, i64 2
  %246 = load i32, ptr %245, align 4, !tbaa !8
  store i32 %246, ptr %32, align 4, !tbaa !8
  call void @llvm.lifetime.start.p0(i64 4, ptr %33) #8
  %247 = load ptr, ptr %3, align 8, !tbaa !3
  %248 = getelementptr i32, ptr %247, i64 3
  %249 = load i32, ptr %248, align 4, !tbaa !8
  store i32 %249, ptr %33, align 4, !tbaa !8
  call void @llvm.lifetime.start.p0(i64 4, ptr %34) #8
  %250 = load ptr, ptr %3, align 8, !tbaa !3
  %251 = getelementptr i32, ptr %250, i64 4
  %252 = load i32, ptr %251, align 4, !tbaa !8
  store i32 %252, ptr %34, align 4, !tbaa !8
  %253 = load i32, ptr %30, align 4, !tbaa !8
  %254 = load i32, ptr %5, align 4, !tbaa !8
  %255 = add i32 %253, %254
  %256 = load ptr, ptr %3, align 8, !tbaa !3
  %257 = getelementptr i32, ptr %256, i64 0
  store i32 %255, ptr %257, align 4, !tbaa !8
  %258 = load i32, ptr %31, align 4, !tbaa !8
  %259 = load i32, ptr %6, align 4, !tbaa !8
  %260 = add i32 %258, %259
  %261 = load ptr, ptr %3, align 8, !tbaa !3
  %262 = getelementptr i32, ptr %261, i64 1
  store i32 %260, ptr %262, align 4, !tbaa !8
  %263 = load i32, ptr %32, align 4, !tbaa !8
  %264 = load i32, ptr %7, align 4, !tbaa !8
  %265 = add i32 %263, %264
  %266 = load ptr, ptr %3, align 8, !tbaa !3
  %267 = getelementptr i32, ptr %266, i64 2
  store i32 %265, ptr %267, align 4, !tbaa !8
  %268 = load i32, ptr %33, align 4, !tbaa !8
  %269 = load i32, ptr %8, align 4, !tbaa !8
  %270 = add i32 %268, %269
  %271 = load ptr, ptr %3, align 8, !tbaa !3
  %272 = getelementptr i32, ptr %271, i64 3
  store i32 %270, ptr %272, align 4, !tbaa !8
  %273 = load i32, ptr %34, align 4, !tbaa !8
  %274 = load i32, ptr %9, align 4, !tbaa !8
  %275 = add i32 %273, %274
  %276 = load ptr, ptr %3, align 8, !tbaa !3
  %277 = getelementptr i32, ptr %276, i64 4
  store i32 %275, ptr %277, align 4, !tbaa !8
  call void @llvm.lifetime.end.p0(i64 4, ptr %34) #8
  call void @llvm.lifetime.end.p0(i64 4, ptr %33) #8
  call void @llvm.lifetime.end.p0(i64 4, ptr %32) #8
  call void @llvm.lifetime.end.p0(i64 4, ptr %31) #8
  call void @llvm.lifetime.end.p0(i64 4, ptr %30) #8
  call void @llvm.lifetime.end.p0(i64 320, ptr %10) #8
  call void @llvm.lifetime.end.p0(i64 4, ptr %9) #8
  call void @llvm.lifetime.end.p0(i64 4, ptr %8) #8
  call void @llvm.lifetime.end.p0(i64 4, ptr %7) #8
  call void @llvm.lifetime.end.p0(i64 4, ptr %6) #8
  call void @llvm.lifetime.end.p0(i64 4, ptr %5) #8
  ret void
}

; Function Attrs: nounwind uwtable
define hidden void @python_hashlib_Hacl_Hash_SHA1_update_multi(ptr noundef %0, ptr noundef %1, i32 noundef %2) #0 {
  %4 = alloca ptr, align 8
  %5 = alloca ptr, align 8
  %6 = alloca i32, align 4
  %7 = alloca i32, align 4
  %8 = alloca i32, align 4
  %9 = alloca ptr, align 8
  store ptr %0, ptr %4, align 8, !tbaa !3
  store ptr %1, ptr %5, align 8, !tbaa !10
  store i32 %2, ptr %6, align 4, !tbaa !8
  call void @llvm.lifetime.start.p0(i64 4, ptr %7) #8
  store i32 0, ptr %7, align 4, !tbaa !8
  br label %10

10:                                               ; preds = %24, %3
  %11 = load i32, ptr %7, align 4, !tbaa !8
  %12 = load i32, ptr %6, align 4, !tbaa !8
  %13 = icmp ult i32 %11, %12
  br i1 %13, label %15, label %14

14:                                               ; preds = %10
  call void @llvm.lifetime.end.p0(i64 4, ptr %7) #8
  br label %27

15:                                               ; preds = %10
  call void @llvm.lifetime.start.p0(i64 4, ptr %8) #8
  store i32 64, ptr %8, align 4, !tbaa !8
  call void @llvm.lifetime.start.p0(i64 8, ptr %9) #8
  %16 = load ptr, ptr %5, align 8, !tbaa !10
  %17 = load i32, ptr %8, align 4, !tbaa !8
  %18 = load i32, ptr %7, align 4, !tbaa !8
  %19 = mul i32 %17, %18
  %20 = zext i32 %19 to i64
  %21 = getelementptr i8, ptr %16, i64 %20
  store ptr %21, ptr %9, align 8, !tbaa !10
  %22 = load ptr, ptr %4, align 8, !tbaa !3
  %23 = load ptr, ptr %9, align 8, !tbaa !10
  call void @update(ptr noundef %22, ptr noundef %23)
  call void @llvm.lifetime.end.p0(i64 8, ptr %9) #8
  call void @llvm.lifetime.end.p0(i64 4, ptr %8) #8
  br label %24

24:                                               ; preds = %15
  %25 = load i32, ptr %7, align 4, !tbaa !8
  %26 = add i32 %25, 1
  store i32 %26, ptr %7, align 4, !tbaa !8
  br label %10, !llvm.loop !12

27:                                               ; preds = %14
  ret void
}