; Function Attrs: nofree norecurse nosync nounwind memory(argmem: readwrite) uwtable
define hidden void @python_hashlib_Hacl_Hash_SHA1_update_multi(ptr noundef captures(none) %0, ptr noundef readonly captures(none) %1, i32 noundef %2) local_unnamed_addr #3 {
  %4 = alloca [80 x i32], align 16
  %.not = icmp eq i32 %2, 0
  br i1 %.not, label %._crit_edge, label %.lr.ph

.lr.ph:                                           ; preds = %3
  %5 = getelementptr i8, ptr %0, i64 4
  %6 = getelementptr i8, ptr %0, i64 8
  %7 = getelementptr i8, ptr %0, i64 12
  %8 = getelementptr i8, ptr %0, i64 16
  %.promoted = load i32, ptr %0, align 4, !tbaa !3
  %.promoted12 = load i32, ptr %5, align 4, !tbaa !3
  %.promoted13 = load i32, ptr %6, align 4, !tbaa !3
  %.promoted14 = load i32, ptr %7, align 4, !tbaa !3
  %.promoted15 = load i32, ptr %8, align 4, !tbaa !3
  %wide.trip.count = zext i32 %2 to i64
  br label %9

._crit_edge:                                      ; preds = %update.exit, %3
  ret void

9:                                                ; preds = %.lr.ph, %update.exit
  %indvars.iv = phi i64 [ 0, %.lr.ph ], [ %indvars.iv.next, %update.exit ]
  %10 = phi i32 [ %.promoted15, %.lr.ph ], [ %80, %update.exit ]
  %11 = phi i32 [ %.promoted14, %.lr.ph ], [ %79, %update.exit ]
  %12 = phi i32 [ %.promoted13, %.lr.ph ], [ %78, %update.exit ]
  %13 = phi i32 [ %.promoted12, %.lr.ph ], [ %77, %update.exit ]
  %14 = phi i32 [ %.promoted, %.lr.ph ], [ %76, %update.exit ]
  %15 = shl i64 %indvars.iv, 6
  %16 = and i64 %15, 4294967232
  %17 = getelementptr i8, ptr %1, i64 %16
  call void @llvm.lifetime.start.p0(i64 320, ptr nonnull %4) #15
  call void @llvm.memset.p0.i64(ptr noundef nonnull align 16 dereferenceable(320) %4, i8 0, i64 320, i1 false)
  br label %18

18:                                               ; preds = %41, %9
  %indvars.iv.i = phi i64 [ 0, %9 ], [ %indvars.iv.next.i, %41 ]
  %19 = icmp samesign ult i64 %indvars.iv.i, 16
  br i1 %19, label %20, label %24

20:                                               ; preds = %18
  %21 = shl nuw nsw i64 %indvars.iv.i, 2
  %22 = getelementptr i8, ptr %17, i64 %21
  %.val.i = load i32, ptr %22, align 1
  %23 = tail call noundef i32 @llvm.bswap.i32(i32 %.val.i)
  br label %41

24:                                               ; preds = %18
  %25 = add nsw i64 %indvars.iv.i, -3
  %26 = getelementptr [80 x i32], ptr %4, i64 0, i64 %25
  %27 = load i32, ptr %26, align 4, !tbaa !3
  %28 = add nsw i64 %indvars.iv.i, -8
  %29 = getelementptr [80 x i32], ptr %4, i64 0, i64 %28
  %30 = load i32, ptr %29, align 4, !tbaa !3
  %31 = add nsw i64 %indvars.iv.i, -14
  %32 = getelementptr [80 x i32], ptr %4, i64 0, i64 %31
  %33 = load i32, ptr %32, align 4, !tbaa !3
  %34 = add nsw i64 %indvars.iv.i, -16
  %35 = getelementptr [80 x i32], ptr %4, i64 0, i64 %34
  %36 = load i32, ptr %35, align 4, !tbaa !3
  %37 = xor i32 %30, %27
  %38 = xor i32 %37, %33
  %39 = xor i32 %38, %36
  %40 = tail call i32 @llvm.fshl.i32(i32 %39, i32 %39, i32 1)
  br label %41

41:                                               ; preds = %24, %20
  %.093.i = phi i32 [ %23, %20 ], [ %40, %24 ]
  %42 = getelementptr [80 x i32], ptr %4, i64 0, i64 %indvars.iv.i
  store i32 %.093.i, ptr %42, align 4, !tbaa !3
  %indvars.iv.next.i = add nuw nsw i64 %indvars.iv.i, 1
  %exitcond.not.i = icmp eq i64 %indvars.iv.next.i, 80
  br i1 %exitcond.not.i, label %.preheader104.i, label %18, !llvm.loop !7

.preheader104.i:                                  ; preds = %41, %69
  %indvars.iv121.i = phi i64 [ %indvars.iv.next122.i, %69 ], [ 0, %41 ]
  %43 = phi i32 [ %74, %69 ], [ %14, %41 ]
  %44 = phi i32 [ %43, %69 ], [ %13, %41 ]
  %45 = phi i32 [ %75, %69 ], [ %12, %41 ]
  %46 = phi i32 [ %45, %69 ], [ %11, %41 ]
  %47 = phi i32 [ %46, %69 ], [ %10, %41 ]
  %48 = getelementptr [80 x i32], ptr %4, i64 0, i64 %indvars.iv121.i
  %49 = load i32, ptr %48, align 4, !tbaa !3
  %50 = icmp samesign ult i64 %indvars.iv121.i, 20
  br i1 %50, label %58, label %51

51:                                               ; preds = %.preheader104.i
  %52 = trunc i64 %indvars.iv121.i to i32
  %53 = add i32 %52, -40
  %or.cond.i = icmp ult i32 %53, 20
  br i1 %or.cond.i, label %.thread101.i, label %63

.thread101.i:                                     ; preds = %51
  %54 = and i32 %45, %44
  %55 = xor i32 %45, %44
  %56 = and i32 %55, %46
  %57 = xor i32 %56, %54
  br label %67

58:                                               ; preds = %.preheader104.i
  %59 = and i32 %45, %44
  %60 = xor i32 %44, -1
  %61 = and i32 %46, %60
  %62 = or i32 %61, %59
  br label %69

63:                                               ; preds = %51
  %64 = xor i32 %45, %44
  %65 = xor i32 %64, %46
  %66 = icmp samesign ult i64 %indvars.iv121.i, 40
  br i1 %66, label %69, label %67

67:                                               ; preds = %63, %.thread101.i
  %.095.ph103.i = phi i32 [ %57, %.thread101.i ], [ %65, %63 ]
  %68 = icmp samesign ult i64 %indvars.iv121.i, 60
  %..i = select i1 %68, i32 -1894007588, i32 -899497514
  br label %69

69:                                               ; preds = %67, %63, %58
  %.095100.i = phi i32 [ %62, %58 ], [ %65, %63 ], [ %.095.ph103.i, %67 ]
  %.096.i = phi i32 [ 1518500249, %58 ], [ 1859775393, %63 ], [ %..i, %67 ]
  %70 = tail call i32 @llvm.fshl.i32(i32 %43, i32 %43, i32 5)
  %71 = add i32 %47, %70
  %72 = add i32 %71, %49
  %73 = add i32 %72, %.095100.i
  %74 = add i32 %73, %.096.i
  %75 = tail call i32 @llvm.fshl.i32(i32 %44, i32 %44, i32 30)
  %indvars.iv.next122.i = add nuw nsw i64 %indvars.iv121.i, 1
  %exitcond124.not.i = icmp eq i64 %indvars.iv.next122.i, 80
  br i1 %exitcond124.not.i, label %update.exit, label %.preheader104.i, !llvm.loop !9

update.exit:                                      ; preds = %69
  %76 = add i32 %74, %14
  store i32 %76, ptr %0, align 4, !tbaa !3
  %77 = add i32 %43, %13
  store i32 %77, ptr %5, align 4, !tbaa !3
  %78 = add i32 %75, %12
  store i32 %78, ptr %6, align 4, !tbaa !3
  %79 = add i32 %45, %11
  store i32 %79, ptr %7, align 4, !tbaa !3
  %80 = add i32 %46, %10
  store i32 %80, ptr %8, align 4, !tbaa !3
  call void @llvm.lifetime.end.p0(i64 320, ptr nonnull %4) #15
  %indvars.iv.next = add nuw nsw i64 %indvars.iv, 1
  %exitcond.not = icmp eq i64 %indvars.iv.next, %wide.trip.count
  br i1 %exitcond.not, label %._crit_edge, label %9, !llvm.loop !10
}